; Function Attrs: mustprogress uwtable
define hidden noundef zeroext i1 @_ZNK4cvc58internal6theory5arith6linear24SimplexDecisionProcedure29maybeGenerateConflictForBasicEj(ptr noundef nonnull align 8 dereferenceable(304) %0, i32 noundef %1) local_unnamed_addr #3 align 2 {
  %3 = getelementptr inbounds nuw i8, ptr %0, i64 128
  %4 = load ptr, ptr %3, align 8, !tbaa !308
  %5 = getelementptr inbounds nuw i8, ptr %4, i64 48
  %6 = zext i32 %1 to i64
  %7 = load ptr, ptr %5, align 8, !tbaa !309
  %8 = getelementptr inbounds nuw %"class.cvc5::internal::theory::arith::linear::ArithVariables::VarInfo", ptr %7, i64 %6, i32 5
  %9 = load i32, ptr %8, align 8, !tbaa !312
  %10 = icmp slt i32 %9, 0
  br i1 %10, label %11, label %15

11:                                               ; preds = %2
  %12 = getelementptr inbounds nuw i8, ptr %0, i64 120
  %13 = load ptr, ptr %12, align 8, !tbaa !319
  %14 = tail call noundef zeroext i1 @_ZNK4cvc58internal6theory5arith6linear20LinearEqualityModule22nonbasicsAtUpperBoundsEj(ptr noundef nonnull align 8 dereferenceable(456) %13, i32 noundef %1)
  br i1 %14, label %23, label %_ZNK4cvc58internal6theory5arith6linear24SimplexDecisionProcedure21checkBasicForConflictEj.exit

15:                                               ; preds = %2
  %16 = getelementptr inbounds nuw %"class.cvc5::internal::theory::arith::linear::ArithVariables::VarInfo", ptr %7, i64 %6, i32 6
  %17 = load i32, ptr %16, align 4, !tbaa !320
  %18 = icmp sgt i32 %17, 0
  br i1 %18, label %19, label %_ZNK4cvc58internal6theory5arith6linear24SimplexDecisionProcedure21checkBasicForConflictEj.exit

19:                                               ; preds = %15
  %20 = getelementptr inbounds nuw i8, ptr %0, i64 120
  %21 = load ptr, ptr %20, align 8, !tbaa !319
  %22 = tail call noundef zeroext i1 @_ZNK4cvc58internal6theory5arith6linear20LinearEqualityModule22nonbasicsAtLowerBoundsEj(ptr noundef nonnull align 8 dereferenceable(456) %21, i32 noundef %1)
  br i1 %22, label %23, label %_ZNK4cvc58internal6theory5arith6linear24SimplexDecisionProcedure21checkBasicForConflictEj.exit

23:                                               ; preds = %11, %19
  %24 = tail call noundef ptr @_ZNK4cvc58internal6theory5arith6linear24SimplexDecisionProcedure24generateConflictForBasicEj(ptr noundef nonnull align 8 dereferenceable(304) %0, i32 noundef %1)
  %25 = getelementptr inbounds nuw i8, ptr %0, i64 160
  tail call void @_ZNK4cvc58internal6theory5arith6linear13RaiseConflict13raiseConflictEPKNS3_10ConstraintENS1_11InferenceIdE(ptr noundef nonnull align 8 dereferenceable(8) %25, ptr noundef %24, i32 noundef 391)
  br label %_ZNK4cvc58internal6theory5arith6linear24SimplexDecisionProcedure21checkBasicForConflictEj.exit

_ZNK4cvc58internal6theory5arith6linear24SimplexDecisionProcedure21checkBasicForConflictEj.exit: ; preds = %19, %15, %11, %23
  %.0.i5 = phi i1 [ true, %23 ], [ false, %11 ], [ false, %15 ], [ false, %19 ]
  ret i1 %.0.i5
}